TN:
SF:/home/arrif-sondjalim/c++projects/data-science/cpp_tests/main.cpp
FN:7,13,main
FNDA:1,main
FNF:1
FNH:1
DA:7,1
DA:8,1
DA:9,1
DA:10,1
DA:12,1
LF:5
LH:5
end_of_record
TN:
SF:/home/arrif-sondjalim/c++projects/data-science/cpp_tests/test_logging.cpp
FN:3,16,_Z11TestLoggingv
FNDA:1,_Z11TestLoggingv
FNF:1
FNH:1
DA:3,1
DA:4,1
DA:5,1
DA:6,1
DA:7,1
DA:8,1
DA:9,1
DA:10,2
DA:11,2
DA:12,2
DA:13,1
DA:15,1
DA:16,1
LF:13
LH:13
end_of_record
TN:
SF:/home/arrif-sondjalim/c++projects/data-science/cpp_tests/test_read_data.cpp
FN:3,174,_Z12TestReadDatav
FNDA:1,_Z12TestReadDatav
FNF:1
FNH:1
DA:3,1
DA:4,1
DA:7,1
DA:8,0
DA:9,1
DA:10,1
DA:11,1
DA:14,1
DA:15,0
DA:16,1
DA:17,1
DA:18,1
DA:20,1
DA:22,1
DA:23,0
DA:24,1
DA:25,1
DA:26,1
DA:28,1
DA:29,1
DA:30,1
DA:32,1
DA:34,1
DA:35,1
DA:37,1
DA:38,1
DA:39,1
DA:41,1
DA:42,1
DA:43,1
DA:44,1
DA:45,1
DA:46,1
DA:47,12
DA:48,11
DA:50,1
DA:51,1
DA:54,1
DA:56,0
DA:57,1
DA:58,1
DA:59,1
DA:61,1
DA:62,1
DA:63,1
DA:65,1
DA:66,1
DA:68,1
DA:69,1
DA:70,1
DA:72,1
DA:73,1
DA:75,1
DA:76,1
DA:77,1
DA:79,1
DA:80,1
DA:82,1
DA:83,1
DA:84,1
DA:86,1
DA:88,1
DA:89,1
DA:91,1
DA:92,1
DA:93,1
DA:95,1
DA:96,1
DA:98,1
DA:99,1
DA:100,1
DA:101,1
DA:103,1
DA:104,1
DA:106,1
DA:107,1
DA:108,1
DA:110,1
DA:111,1
DA:113,1
DA:114,1
DA:115,1
DA:116,1
DA:117,3
DA:119,1
DA:120,0
DA:122,4
DA:123,3
DA:124,3
DA:125,3
DA:126,3
DA:129,1
DA:131,1
DA:133,1
DA:134,1
DA:135,1
DA:136,1
DA:137,3
DA:139,1
DA:140,0
DA:143,4
DA:144,3
DA:145,3
DA:146,3
DA:147,3
DA:150,1
DA:152,1
DA:154,1
DA:155,1
DA:156,1
DA:158,1
DA:159,1
DA:162,1
DA:163,1
DA:164,1
DA:166,1
DA:167,1
DA:168,1
DA:169,1
DA:170,0
DA:171,0
DA:173,1
DA:174,1
LF:123
LH:115
end_of_record
TN:
SF:/home/arrif-sondjalim/c++projects/data-science/cpp_tests/test_statistik.cpp
FN:3,48,_Z13TestStatistikv
FNDA:1,_Z13TestStatistikv
FNF:1
FNH:1
DA:3,1
DA:4,1
DA:5,1
DA:7,1
DA:8,1
DA:10,1
DA:11,1
DA:13,1
DA:14,1
DA:16,1
DA:17,1
DA:19,1
DA:20,1
DA:22,1
DA:23,1
DA:25,1
DA:26,1
DA:27,1
DA:28,1
DA:29,1
DA:30,1
DA:31,1
DA:32,1
DA:33,1
DA:34,1
DA:35,1
DA:36,1
DA:37,1
DA:38,1
DA:39,1
DA:40,1
DA:41,1
DA:42,1
DA:43,1
DA:44,1
DA:45,1
DA:47,1
DA:48,1
LF:38
LH:38
end_of_record
TN:
SF:/home/arrif-sondjalim/c++projects/data-science/src/logging.cpp
FN:102,105,_ZN7Logging8GetLevelB5cxx11Ev
FN:111,128,_ZN7Logging3LogERKNSt7__cxx1112basic_stringIcSt11char_traitsIcESaIcEEE8LogLevel
FN:17,21,_ZN7LoggingD2Ev
FN:27,30,_ZN7Logging8SetLevelE8LogLevel
FN:36,39,_ZN7Logging19EnableConsoleOutputEb
FN:44,52,_ZN7Logging17TestConsoleStatusEv
FN:58,64,_ZNK7Logging12GetTimestampB5cxx11Ev
FN:66,76,_ZN7Logging16TestGetTimestampEv
FN:7,13,_ZN7LoggingC2ERKNSt7__cxx1112basic_stringIcSt11char_traitsIcESaIcEEE8LogLevelb
FN:83,96,_ZNK7Logging13LevelToStringB5cxx11E8LogLevel
FNDA:1,_ZN7Logging8GetLevelB5cxx11Ev
FNDA:4,_ZN7Logging3LogERKNSt7__cxx1112basic_stringIcSt11char_traitsIcESaIcEEE8LogLevel
FNDA:2,_ZN7LoggingD2Ev
FNDA:0,_ZN7Logging8SetLevelE8LogLevel
FNDA:3,_ZN7Logging19EnableConsoleOutputEb
FNDA:1,_ZN7Logging17TestConsoleStatusEv
FNDA:5,_ZNK7Logging12GetTimestampB5cxx11Ev
FNDA:1,_ZN7Logging16TestGetTimestampEv
FNDA:2,_ZN7LoggingC2ERKNSt7__cxx1112basic_stringIcSt11char_traitsIcESaIcEEE8LogLevelb
FNDA:5,_ZNK7Logging13LevelToStringB5cxx11E8LogLevel
FNF:10
FNH:9
DA:7,2
DA:8,2
DA:9,2
DA:10,2
DA:11,0
DA:13,2
DA:17,2
DA:18,2
DA:19,2
DA:21,2
DA:27,0
DA:28,0
DA:29,0
DA:30,0
DA:36,3
DA:37,3
DA:38,3
DA:39,3
DA:44,1
DA:45,1
DA:46,1
DA:48,1
DA:49,1
DA:51,1
DA:58,5
DA:59,5
DA:60,5
DA:61,5
DA:62,5
DA:63,10
DA:64,5
DA:66,1
DA:67,1
DA:68,1
DA:71,1
DA:72,1
DA:73,1
DA:75,1
DA:76,1
DA:83,5
DA:84,5
DA:85,2
DA:86,4
DA:87,1
DA:88,2
DA:89,1
DA:90,2
DA:91,1
DA:92,2
DA:93,0
DA:94,0
DA:102,1
DA:103,1
DA:104,2
DA:105,1
DA:111,4
DA:112,4
DA:113,0
DA:115,4
DA:116,4
DA:117,4
DA:118,4
DA:120,4
DA:121,4
DA:122,4
DA:123,4
DA:125,4
DA:126,0
DA:128,4
LF:69
LH:60
end_of_record
TN:
SF:/home/arrif-sondjalim/c++projects/data-science/src/read_data.cpp
FN:10,14,_ZNK8ReadData12ObserveCacheEv
FN:107,136,_ZNK8ReadData8ReadAutoB5cxx11Eb
FN:142,161,_ZNK8ReadData11DisplayDataB5cxx11Ev
FN:20,38,_ZNK8ReadData8ReadFileB5cxx11Ev
FN:3,3,_ZN8ReadDataC2ERKNSt7__cxx1112basic_stringIcSt11char_traitsIcESaIcEEE
FN:44,44,_ZNK8ReadData7ReadTxtB5cxx11Ev
FN:5,5,_ZN8ReadData8GetMutexEv
FN:50,50,_ZNK8ReadData7ReadCSVB5cxx11Ev
FN:56,56,_ZNK8ReadData8ReadJSONB5cxx11Ev
FN:62,78,_ZNK8ReadData7ReadPDFB5cxx11Ev
FN:83,83,_ZNK8ReadData8ReadHTMLB5cxx11Ev
FN:88,101,_ZNK8ReadData7ReadXMLB5cxx11Ev
FNDA:1,_ZNK8ReadData12ObserveCacheEv
FNDA:2,_ZNK8ReadData8ReadAutoB5cxx11Eb
FNDA:4,_ZNK8ReadData11DisplayDataB5cxx11Ev
FNDA:21,_ZNK8ReadData8ReadFileB5cxx11Ev
FNDA:23,_ZN8ReadDataC2ERKNSt7__cxx1112basic_stringIcSt11char_traitsIcESaIcEEE
FNDA:10,_ZNK8ReadData7ReadTxtB5cxx11Ev
FNDA:0,_ZN8ReadData8GetMutexEv
FNDA:3,_ZNK8ReadData7ReadCSVB5cxx11Ev
FNDA:3,_ZNK8ReadData8ReadJSONB5cxx11Ev
FNDA:4,_ZNK8ReadData7ReadPDFB5cxx11Ev
FNDA:1,_ZNK8ReadData8ReadHTMLB5cxx11Ev
FNDA:1,_ZNK8ReadData7ReadXMLB5cxx11Ev
FNF:12
FNH:11
DA:3,23
DA:5,0
DA:10,1
DA:11,1
DA:12,1
DA:13,1
DA:14,1
DA:20,21
DA:21,21
DA:22,21
DA:23,1
DA:26,20
DA:27,20
DA:28,0
DA:31,20
DA:32,20
DA:34,20
DA:35,20
DA:37,40
DA:38,21
DA:44,10
DA:50,3
DA:56,3
DA:62,4
DA:63,4
DA:64,4
DA:65,4
DA:66,4
DA:67,1
DA:69,12
DA:70,9
DA:71,9
DA:72,9
DA:73,9
DA:76,3
DA:77,6
DA:78,5
DA:83,1
DA:88,1
DA:89,1
DA:90,1
DA:91,1
DA:92,0
DA:95,1
DA:96,1
DA:98,1
DA:99,1
DA:100,2
DA:101,1
DA:107,2
DA:108,2
DA:109,0
DA:112,2
DA:113,2
DA:115,2
DA:116,1
DA:117,1
DA:118,0
DA:119,1
DA:120,0
DA:121,1
DA:122,0
DA:123,1
DA:124,0
DA:125,1
DA:126,0
DA:130,1
DA:133,1
DA:134,1
DA:135,1
DA:136,3
DA:142,4
DA:143,4
DA:145,4
DA:146,1
DA:149,3
DA:150,3
DA:151,3
DA:152,3
DA:154,23
DA:155,20
DA:156,20
DA:157,20
DA:160,6
DA:161,4
LF:85
LH:76
end_of_record
TN:
SF:/home/arrif-sondjalim/c++projects/data-science/src/statistik.cpp
FN:105,132,_ZNK9Statistik16MittelwertInternEv
FN:139,142,_ZNK9Statistik10MittelwertEv
FN:148,164,_ZNK9Statistik6MedianEv
FN:170,196,_ZNK9Statistik14ErwartungswertEv
FN:18,30,_ZN9Statistik13EntferneDatenERKNSt7__cxx1112basic_stringIcSt11char_traitsIcESaIcEEE
FN:202,230,_ZNK9Statistik7VarianzEv
FN:232,235,_ZNK9Statistik18StandardabweichungEv
FN:28,28,_ZZN9Statistik13EntferneDatenERKNSt7__cxx1112basic_stringIcSt11char_traitsIcESaIcEEEENKUlS7_E_clES7_
FN:3,3,_ZN9StatistikC2Ev
FN:36,39,_ZNK9Statistik15ZaehleEintraegeEv
FN:45,52,_ZNK9Statistik13ZaehleZeichenEv
FN:58,68,_ZNK9Statistik12ZaehleLinienEv
FN:70,82,_ZNK9Statistik14ZaehleVariableENSt7__cxx1112basic_stringIcSt11char_traitsIcESaIcEEE
FN:88,98,_ZNK9Statistik11ZaehleWorteEv
FN:9,12,_ZN9Statistik9LadeDatenER8ReadData
FNDA:2,_ZNK9Statistik16MittelwertInternEv
FNDA:1,_ZNK9Statistik10MittelwertEv
FNDA:1,_ZNK9Statistik6MedianEv
FNDA:1,_ZNK9Statistik14ErwartungswertEv
FNDA:2,_ZN9Statistik13EntferneDatenERKNSt7__cxx1112basic_stringIcSt11char_traitsIcESaIcEEE
FNDA:1,_ZNK9Statistik7VarianzEv
FNDA:1,_ZNK9Statistik18StandardabweichungEv
FNDA:1,_ZZN9Statistik13EntferneDatenERKNSt7__cxx1112basic_stringIcSt11char_traitsIcESaIcEEEENKUlS7_E_clES7_
FNDA:1,_ZN9StatistikC2Ev
FNDA:5,_ZNK9Statistik15ZaehleEintraegeEv
FNDA:1,_ZNK9Statistik13ZaehleZeichenEv
FNDA:2,_ZNK9Statistik12ZaehleLinienEv
FNDA:1,_ZNK9Statistik14ZaehleVariableENSt7__cxx1112basic_stringIcSt11char_traitsIcESaIcEEE
FNDA:2,_ZNK9Statistik11ZaehleWorteEv
FNDA:3,_ZN9Statistik9LadeDatenER8ReadData
FNF:15
FNH:15
DA:3,1
DA:9,3
DA:10,3
DA:11,3
DA:12,3
DA:18,2
DA:19,2
DA:21,3
DA:22,1
DA:23,1
DA:27,2
DA:28,1
DA:29,2
DA:30,2
DA:36,5
DA:37,5
DA:38,10
DA:39,5
DA:45,1
DA:46,1
DA:47,1
DA:48,3
DA:49,2
DA:51,1
DA:52,1
DA:58,2
DA:59,2
DA:60,2
DA:61,5
DA:62,3
DA:63,0
DA:65,3
DA:67,2
DA:68,2
DA:70,1
DA:71,1
DA:72,1
DA:73,2
DA:74,1
DA:75,1
DA:76,1
DA:77,1
DA:78,2
DA:79,1
DA:80,1
DA:81,1
DA:82,1
DA:88,2
DA:89,2
DA:90,2
DA:91,2
DA:92,5
DA:93,3
DA:94,3
DA:95,6
DA:96,3
DA:97,2
DA:98,2
DA:105,2
DA:106,2
DA:107,0
DA:109,2
DA:110,2
DA:111,2
DA:113,6
DA:114,4
DA:115,4
DA:117,818
DA:119,814
DA:120,814
DA:121,0
DA:122,0
DA:123,0
DA:124,4
DA:125,4
DA:126,2
DA:127,0
DA:130,2
DA:131,2
DA:132,2
DA:139,1
DA:140,1
DA:141,2
DA:142,1
DA:148,1
DA:149,1
DA:150,1
DA:151,0
DA:153,1
DA:154,3
DA:155,2
DA:157,1
DA:158,1
DA:159,1
DA:160,1
DA:162,0
DA:164,1
DA:170,1
DA:171,1
DA:172,1
DA:173,0
DA:175,1
DA:176,1
DA:178,3
DA:179,2
DA:180,2
DA:181,2
DA:183,409
DA:185,407
DA:186,407
DA:187,0
DA:188,0
DA:189,0
DA:190,2
DA:191,2
DA:192,1
DA:193,0
DA:195,1
DA:196,1
DA:202,1
DA:203,1
DA:204,0
DA:206,1
DA:207,1
DA:208,1
DA:210,3
DA:211,2
DA:212,2
DA:213,2
DA:215,409
DA:217,407
DA:218,407
DA:219,407
DA:220,0
DA:221,0
DA:222,0
DA:223,2
DA:224,2
DA:225,1
DA:226,0
DA:229,1
DA:232,1
DA:233,1
DA:234,2
DA:235,1
LF:145
LH:127
end_of_record
